; Function Attrs: mustprogress nofree norecurse nosync nounwind willreturn memory(read, inaccessiblemem: none) uwtable
define hidden noundef zeroext i1 @_ZNK9used_vars10uses_a_varEj(ptr nocapture noundef nonnull readonly align 8 dereferenceable(48) %this, i32 noundef %num_decls) local_unnamed_addr #4 align 2 {
entry:
  %0 = load ptr, ptr %this, align 8
  %cmp.i = icmp eq ptr %0, null
  br i1 %cmp.i, label %_ZNK6vectorIP4sortLb0EjE4sizeEv.exit, label %if.end.i

if.end.i:                                         ; preds = %entry
  %arrayidx.i = getelementptr inbounds i8, ptr %0, i64 -4
  %1 = load i32, ptr %arrayidx.i, align 4
  br label %_ZNK6vectorIP4sortLb0EjE4sizeEv.exit

_ZNK6vectorIP4sortLb0EjE4sizeEv.exit:             ; preds = %entry, %if.end.i
  %retval.0.i = phi i32 [ %1, %if.end.i ], [ 0, %entry ]
  %.sroa.speculated = tail call i32 @llvm.umin.i32(i32 %retval.0.i, i32 %num_decls)
  %cmp8.not = icmp eq i32 %.sroa.speculated, 0
  br i1 %cmp8.not, label %return, label %for.body.preheader

for.body.preheader:                               ; preds = %_ZNK6vectorIP4sortLb0EjE4sizeEv.exit
  %2 = zext i32 %.sroa.speculated to i64
  %3 = load ptr, ptr %0, align 8
  %tobool.not12 = icmp eq ptr %3, null
  br i1 %tobool.not12, label %for.cond, label %return

for.cond:                                         ; preds = %for.body.preheader, %for.body
  %indvars.iv13 = phi i64 [ %indvars.iv.next, %for.body ], [ 0, %for.body.preheader ]
  %indvars.iv.next = add nuw nsw i64 %indvars.iv13, 1
  %exitcond.not = icmp eq i64 %indvars.iv.next, %2
  br i1 %exitcond.not, label %return.loopexit, label %for.body, !llvm.loop !12

for.body:                                         ; preds = %for.cond
  %arrayidx.i4 = getelementptr inbounds ptr, ptr %0, i64 %indvars.iv.next
  %4 = load ptr, ptr %arrayidx.i4, align 8
  %tobool.not = icmp eq ptr %4, null
  br i1 %tobool.not, label %for.cond, label %return.loopexit, !llvm.loop !12

return.loopexit:                                  ; preds = %for.body, %for.cond
  %cmp.le = icmp ult i64 %indvars.iv.next, %2
  br label %return

return:                                           ; preds = %return.loopexit, %for.body.preheader, %_ZNK6vectorIP4sortLb0EjE4sizeEv.exit
  %cmp.lcssa = phi i1 [ false, %_ZNK6vectorIP4sortLb0EjE4sizeEv.exit ], [ true, %for.body.preheader ], [ %cmp.le, %return.loopexit ]
  ret i1 %cmp.lcssa
}